target datalayout = "e-m:e-p270:32:32-p271:32:32-p272:64:64-i64:64-i128:128-f80:128-n8:16:32:64-S128"
target triple = "x86_64-pc-linux-gnu"

%"class.lean::object_ref" = type { ptr }
%"class.lean::optional" = type { i8, %union.anon.1 }
%union.anon.1 = type { %"class.lean::name" }
%"class.lean::name" = type { %"class.lean::object_ref" }

@.str.2 = private unnamed_addr constant [5 x i8] c"main\00", align 1

; Function Attrs: mustprogress nounwind uwtable
define linkonce_odr hidden noundef nonnull align 8 dereferenceable(8) ptr @_ZN4lean8optionalINS_4nameEEdeEv(ptr noundef nonnull align 8 dereferenceable(16) %0) #5 comdat align 2 {
  %2 = alloca ptr, align 8
  store ptr %0, ptr %2, align 8, !tbaa !30
  %3 = load ptr, ptr %2, align 8
  %4 = getelementptr inbounds nuw %"class.lean::optional", ptr %3, i32 0, i32 1
  ret ptr %4
}

; Function Attrs: mustprogress nounwind uwtable
define linkonce_odr hidden noundef zeroext i1 @_ZNK4lean8optionalINS_4nameEEcvbEv(ptr noundef nonnull align 8 dereferenceable(16) %0) #5 comdat align 2 {
  %2 = alloca ptr, align 8
  store ptr %0, ptr %2, align 8, !tbaa !30
  %3 = load ptr, ptr %2, align 8
  %4 = getelementptr inbounds nuw %"class.lean::optional", ptr %3, i32 0, i32 0
  %5 = load i8, ptr %4, align 8, !tbaa !32, !range !12, !noundef !13
  %6 = trunc i8 %5 to i1
  ret i1 %6
}

; Function Attrs: mustprogress uwtable
define hidden noundef zeroext i1 @_ZN4lean10is_main_fnERKNS_16elab_environmentERKNS_4nameE(ptr noundef nonnull align 8 dereferenceable(8) %0, ptr noundef nonnull align 8 dereferenceable(8) %1) #0 personality ptr @__gxx_personality_v0 {
  %3 = alloca i1, align 1
  %4 = alloca ptr, align 8
  %5 = alloca ptr, align 8
  %6 = alloca %"class.lean::optional", align 8
  %7 = alloca ptr, align 8
  %8 = alloca i32, align 4
  %9 = alloca i32, align 4
  store ptr %0, ptr %4, align 8, !tbaa !28
  store ptr %1, ptr %5, align 8, !tbaa !8
  %10 = load ptr, ptr %5, align 8, !tbaa !8
  %11 = call noundef zeroext i1 @_ZN4leaneqERKNS_4nameEPKc(ptr noundef nonnull align 8 dereferenceable(8) %10, ptr noundef @.str.2)
  br i1 %11, label %12, label %13

12:                                               ; preds = %2
  store i1 true, ptr %3, align 1
  br label %31

13:                                               ; preds = %2
  call void @llvm.lifetime.start.p0(i64 16, ptr %6) #17
  %14 = load ptr, ptr %4, align 8, !tbaa !28
  %15 = load ptr, ptr %5, align 8, !tbaa !8
  call void @_ZN4lean19get_export_name_forERKNS_16elab_environmentERKNS_4nameE(ptr dead_on_unwind writable sret(%"class.lean::optional") align 8 %6, ptr noundef nonnull align 8 dereferenceable(8) %14, ptr noundef nonnull align 8 dereferenceable(8) %15)
  %16 = invoke noundef zeroext i1 @_ZNK4lean8optionalINS_4nameEEcvbEv(ptr noundef nonnull align 8 dereferenceable(16) %6)
          to label %17 unwind label %23

17:                                               ; preds = %13
  br i1 %16, label %18, label %27

18:                                               ; preds = %17
  %19 = invoke noundef nonnull align 8 dereferenceable(8) ptr @_ZN4lean8optionalINS_4nameEEdeEv(ptr noundef nonnull align 8 dereferenceable(16) %6)
          to label %20 unwind label %23

20:                                               ; preds = %18
  %21 = invoke noundef zeroext i1 @_ZN4leaneqERKNS_4nameEPKc(ptr noundef nonnull align 8 dereferenceable(8) %19, ptr noundef @.str.2)
          to label %22 unwind label %23

22:                                               ; preds = %20
  store i1 %21, ptr %3, align 1
  store i32 1, ptr %9, align 4
  br label %28

23:                                               ; preds = %20, %18, %13
  %24 = landingpad { ptr, i32 }
          cleanup
  %25 = extractvalue { ptr, i32 } %24, 0
  store ptr %25, ptr %7, align 8
  %26 = extractvalue { ptr, i32 } %24, 1
  store i32 %26, ptr %8, align 4
  call void @_ZN4lean8optionalINS_4nameEED2Ev(ptr noundef nonnull align 8 dereferenceable(16) %6) #17
  call void @llvm.lifetime.end.p0(i64 16, ptr %6) #17
  br label %33

27:                                               ; preds = %17
  store i32 0, ptr %9, align 4
  br label %28

28:                                               ; preds = %27, %22
  call void @_ZN4lean8optionalINS_4nameEED2Ev(ptr noundef nonnull align 8 dereferenceable(16) %6) #17
  call void @llvm.lifetime.end.p0(i64 16, ptr %6) #17
  %29 = load i32, ptr %9, align 4
  switch i32 %29, label %38 [
    i32 0, label %30
    i32 1, label %31
  ]

30:                                               ; preds = %28
  store i1 false, ptr %3, align 1
  br label %31

31:                                               ; preds = %30, %28, %12
  %32 = load i1, ptr %3, align 1
  ret i1 %32

33:                                               ; preds = %23
  %34 = load ptr, ptr %7, align 8
  %35 = load i32, ptr %8, align 4
  %36 = insertvalue { ptr, i32 } poison, ptr %34, 0
  %37 = insertvalue { ptr, i32 } %36, i32 %35, 1
  resume { ptr, i32 } %37

38:                                               ; preds = %28
  unreachable
}