; Function Attrs: mustprogress uwtable
define hidden noundef zeroext i1 @_ZN4lean10is_main_fnERKNS_16elab_environmentERKNS_4nameE(ptr noundef nonnull align 8 dereferenceable(8) %0, ptr noundef nonnull align 8 dereferenceable(8) %1) local_unnamed_addr #0 personality ptr @__gxx_personality_v0 {
  %3 = alloca %"class.lean::optional", align 8
  %4 = tail call noundef zeroext i1 @_ZN4leaneqERKNS_4nameEPKc(ptr noundef nonnull align 8 dereferenceable(8) %1, ptr noundef nonnull @.str.2)
  br i1 %4, label %30, label %5

5:                                                ; preds = %2
  call void @llvm.lifetime.start.p0(i64 16, ptr nonnull %3) #18
  call void @_ZN4lean19get_export_name_forERKNS_16elab_environmentERKNS_4nameE(ptr dead_on_unwind nonnull writable sret(%"class.lean::optional") align 8 %3, ptr noundef nonnull align 8 dereferenceable(8) %0, ptr noundef nonnull align 8 dereferenceable(8) %1)
  %6 = load i8, ptr %3, align 8, !tbaa !23, !range !11, !noundef !12
  %7 = trunc nuw i8 %6 to i1
  br i1 %7, label %8, label %_ZN4lean8optionalINS_4nameEED2Ev.exit

8:                                                ; preds = %5
  %9 = getelementptr inbounds nuw i8, ptr %3, i64 8
  %10 = invoke noundef zeroext i1 @_ZN4leaneqERKNS_4nameEPKc(ptr noundef nonnull align 8 dereferenceable(8) %9, ptr noundef nonnull @.str.2)
          to label %13 unwind label %11

11:                                               ; preds = %8
  %12 = landingpad { ptr, i32 }
          cleanup
  call void @_ZN4lean8optionalINS_4nameEED2Ev(ptr noundef nonnull align 8 dereferenceable(16) %3) #18
  call void @llvm.lifetime.end.p0(i64 16, ptr nonnull %3) #18
  resume { ptr, i32 } %12

13:                                               ; preds = %8
  %.pre = load i8, ptr %3, align 8, !tbaa !23, !range !11
  %14 = trunc nuw i8 %.pre to i1
  br i1 %14, label %15, label %_ZN4lean8optionalINS_4nameEED2Ev.exit

15:                                               ; preds = %13
  %16 = getelementptr inbounds nuw i8, ptr %3, i64 8
  %17 = load ptr, ptr %16, align 8, !tbaa !13
  %18 = ptrtoint ptr %17 to i64
  %19 = and i64 %18, 1
  %.not.i.i.i = icmp eq i64 %19, 0
  br i1 %.not.i.i.i, label %20, label %_ZN4lean8optionalINS_4nameEED2Ev.exit

20:                                               ; preds = %15
  %21 = load i32, ptr %17, align 4, !tbaa !25
  %22 = icmp sgt i32 %21, 1
  br i1 %22, label %23, label %25, !prof !28

23:                                               ; preds = %20
  %24 = add nsw i32 %21, -1
  store i32 %24, ptr %17, align 4, !tbaa !25
  br label %_ZN4lean8optionalINS_4nameEED2Ev.exit

25:                                               ; preds = %20
  %.not.i.i.i.i = icmp eq i32 %21, 0
  br i1 %.not.i.i.i.i, label %_ZN4lean8optionalINS_4nameEED2Ev.exit, label %26

26:                                               ; preds = %25
  invoke void @lean_dec_ref_cold(ptr noundef nonnull %17)
          to label %_ZN4lean8optionalINS_4nameEED2Ev.exit unwind label %27

27:                                               ; preds = %26
  %28 = landingpad { ptr, i32 }
          catch ptr null
  %29 = extractvalue { ptr, i32 } %28, 0
  call void @__clang_call_terminate(ptr %29) #20
  unreachable

_ZN4lean8optionalINS_4nameEED2Ev.exit:            ; preds = %5, %13, %15, %23, %25, %26
  %.18 = phi i1 [ %10, %13 ], [ %10, %15 ], [ %10, %23 ], [ %10, %25 ], [ %10, %26 ], [ undef, %5 ]
  call void @llvm.lifetime.end.p0(i64 16, ptr nonnull %3) #18
  %spec.select = and i1 %.18, %7
  br label %30

30:                                               ; preds = %_ZN4lean8optionalINS_4nameEED2Ev.exit, %2
  %.06 = phi i1 [ true, %2 ], [ %spec.select, %_ZN4lean8optionalINS_4nameEED2Ev.exit ]
  ret i1 %.06
}